; Function Attrs: nounwind uwtable
define noundef ptr @SUNBandMatrixStorage(i64 noundef %0, i64 noundef %1, i64 noundef %2, i64 noundef %3, ptr noundef %4) local_unnamed_addr #0 {
  %6 = tail call ptr @SUNMatNewEmpty(ptr noundef %4) #18
  %7 = getelementptr inbounds nuw i8, ptr %6, i64 8
  %8 = load ptr, ptr %7, align 8, !tbaa !3
  store ptr @SUNMatGetID_Band, ptr %8, align 8, !tbaa !10
  %9 = getelementptr inbounds nuw i8, ptr %8, i64 8
  store ptr @SUNMatClone_Band, ptr %9, align 8, !tbaa !12
  %10 = getelementptr inbounds nuw i8, ptr %8, i64 16
  store ptr @SUNMatDestroy_Band, ptr %10, align 8, !tbaa !13
  %11 = getelementptr inbounds nuw i8, ptr %8, i64 24
  store ptr @SUNMatZero_Band, ptr %11, align 8, !tbaa !14
  %12 = getelementptr inbounds nuw i8, ptr %8, i64 32
  store ptr @SUNMatCopy_Band, ptr %12, align 8, !tbaa !15
  %13 = getelementptr inbounds nuw i8, ptr %8, i64 40
  store ptr @SUNMatScaleAdd_Band, ptr %13, align 8, !tbaa !16
  %14 = getelementptr inbounds nuw i8, ptr %8, i64 48
  store ptr @SUNMatScaleAddI_Band, ptr %14, align 8, !tbaa !17
  %15 = getelementptr inbounds nuw i8, ptr %8, i64 64
  store ptr @SUNMatMatvec_Band, ptr %15, align 8, !tbaa !18
  %16 = getelementptr inbounds nuw i8, ptr %8, i64 72
  store ptr @SUNMatSpace_Band, ptr %16, align 8, !tbaa !19
  %17 = tail call noalias dereferenceable_or_null(72) ptr @malloc(i64 noundef 72) #19
  store ptr %17, ptr %6, align 8, !tbaa !20
  %18 = add i64 %2, 1
  %19 = add i64 %18, %3
  store i64 %0, ptr %17, align 8, !tbaa !21
  %20 = getelementptr inbounds nuw i8, ptr %17, i64 8
  store i64 %0, ptr %20, align 8, !tbaa !26
  %21 = getelementptr inbounds nuw i8, ptr %17, i64 24
  store i64 %1, ptr %21, align 8, !tbaa !27
  %22 = getelementptr inbounds nuw i8, ptr %17, i64 32
  store i64 %2, ptr %22, align 8, !tbaa !28
  %23 = getelementptr inbounds nuw i8, ptr %17, i64 40
  store i64 %3, ptr %23, align 8, !tbaa !29
  %24 = getelementptr inbounds nuw i8, ptr %17, i64 16
  store i64 %19, ptr %24, align 8, !tbaa !30
  %25 = mul nsw i64 %19, %0
  %26 = getelementptr inbounds nuw i8, ptr %17, i64 56
  store i64 %25, ptr %26, align 8, !tbaa !31
  %27 = getelementptr inbounds nuw i8, ptr %17, i64 48
  %28 = getelementptr inbounds nuw i8, ptr %17, i64 64
  %29 = tail call noalias ptr @calloc(i64 noundef %25, i64 noundef 8) #20
  store ptr %29, ptr %27, align 8, !tbaa !32
  %30 = shl i64 %0, 3
  %31 = tail call noalias ptr @malloc(i64 noundef %30) #19
  store ptr %31, ptr %28, align 8, !tbaa !33
  %32 = icmp sgt i64 %0, 0
  br i1 %32, label %.lr.ph, label %._crit_edge

.lr.ph:                                           ; preds = %5, %.lr.ph
  %.045 = phi i64 [ %36, %.lr.ph ], [ 0, %5 ]
  %33 = mul nsw i64 %.045, %19
  %34 = getelementptr inbounds double, ptr %29, i64 %33
  %35 = getelementptr inbounds nuw ptr, ptr %31, i64 %.045
  store ptr %34, ptr %35, align 8, !tbaa !34
  %36 = add nuw nsw i64 %.045, 1
  %exitcond.not = icmp eq i64 %36, %0
  br i1 %exitcond.not, label %._crit_edge, label %.lr.ph

._crit_edge:                                      ; preds = %.lr.ph, %5
  ret ptr %6
}